(lp0
(lp1
I18
aI46
aa(lp2
I19
aI47
aa(lp3
I18
aI45
aa(lp4
I19
aI45
aa(lp5
I22
aI48
aa(lp6
I17
aI50
aa(lp7
I20
aI47
aa(lp8
I21
aI49
aa(lp9
I16
aI45
aa(lp10
I17
aI45
aa(lp11
I39
aI49
aa(lp12
I39
aI50
aa(lp13
I40
aI50
aa(lp14
I40
aI50
aa(lp15
I34
aI51
aa(lp16
I35
aI50
aa(lp17
I37
aI50
aa(lp18
I36
aI50
aa(lp19
I41
aI51
aa(lp20
I40
aI49
aa(lp21
I48
aI52
aa(lp22
I51
aI53
aa(lp23
I45
aI60
aa(lp24
I48
aI52
aa(lp25
I50
aI61
aa(lp26
I46
aI52
aa(lp27
I48
aI62
aa(lp28
I12
aI1
aa(lp29
I23
aI9
aa(lp30
I23
aI8
aa(lp31
I17
aI22
aa(lp32
I22
aI9
aa(lp33
I37
aI38
aa(lp34
I43
aI43
aa(lp35
I38
aI39
aa(lp36
I40
aI39
aa(lp37
I44
aI40
aa(lp38
I47
aI45
aa(lp39
I36
aI45
aa(lp40
I31
aI42
aa(lp41
I31
aI42
aa(lp42
I32
aI43
aa(lp43
I39
aI46
aa(lp44
I35
aI44
aa(lp45
I35
aI44
aa(lp46
I33
aI43
aa(lp47
I56
aI58
aa(lp48
I62
aI64
aa(lp49
I60
aI63
aa(lp50
I57
aI60
aa(lp51
I55
aI58
aa(lp52
I54
aI57
aa(lp53
I56
aI59
aa(lp54
I37
aI47
aa(lp55
I55
aI77
aa(lp56
I33
aI48
aa(lp57
I34
aI47
aa(lp58
I33
aI48
aa(lp59
I53
aI75
aa(lp60
I50
aI52
aa(lp61
I54
aI52
aa(lp62
I51
aI60
aa(lp63
I43
aI57
aa(lp64
I50
aI55
aa(lp65
I53
aI55
aa(lp66
I50
aI56
aa(lp67
I45
aI66
aa(lp68
I23
aI64
aa(lp69
I26
aI21
aa(lp70
I25
aI25
aa(lp71
I22
aI26
aa(lp72
I27
aI21
aa(lp73
I24
aI16
aa(lp74
I22
aI25
aa(lp75
I25
aI16
aa(lp76
I24
aI17
aa(lp77
I25
aI11
aa(lp78
I23
aI10
aa(lp79
I16
aI46
aa(lp80
I16
aI48
aa(lp81
I16
aI49
aa(lp82
I16
aI50
aa(lp83
I16
aI51
aa(lp84
I17
aI52
aa(lp85
I23
aI45
aa(lp86
I23
aI47
aa(lp87
I35
aI55
aa(lp88
I34
aI54
aa(lp89
I36
aI53
aa(lp90
I40
aI53
aa(lp91
I41
aI54
aa(lp92
I10
aI0
aa(lp93
I42
aI53
aa(lp94
I41
aI54
aa(lp95
I38
aI50
aa(lp96
I35
aI50
aa(lp97
I10
aI0
aa(lp98
I13
aI2
aa(lp99
I49
aI51
aa(lp100
I37
aI41
aa(lp101
I36
aI41
aa(lp102
I39
aI43
aa(lp103
I38
aI41
aa(lp104
I19
aI20
aa(lp105
I40
aI31
aa(lp106
I20
aI20
aa(lp107
I15
aI26
aa(lp108
I58
aI58
aa(lp109
I57
aI57
aa(lp110
I58
aI57
aa(lp111
I60
aI56
aa(lp112
I55
aI61
aa(lp113
I54
aI61
aa(lp114
I56
aI56
aa(lp115
I55
aI56
aa(lp116
I19
aI40
aa(lp117
I26
aI40
aa(lp118
I26
aI40
aa(lp119
I13
aI37
aa(lp120
I16
aI38
aa(lp121
I15
aI38
aa(lp122
I13
aI39
aa(lp123
I23
aI38
aa(lp124
I47
aI38
aa(lp125
I47
aI38
aa(lp126
I48
aI38
aa(lp127
I46
aI38
aa(lp128
I47
aI39
aa(lp129
I47
aI39
aa(lp130
I32
aI42
aa(lp131
I33
aI42
aa(lp132
I44
aI39
aa(lp133
I37
aI46
aa(lp134
I44
aI42
aa(lp135
I32
aI40
aa(lp136
I47
aI44
aa(lp137
I30
aI47
aa(lp138
I49
aI39
aa(lp139
I30
aI40
aa(lp140
I36
aI68
aa(lp141
I38
aI68
aa(lp142
I32
aI67
aa(lp143
I34
aI68
aa(lp144
I28
aI66
aa(lp145
I31
aI67
aa(lp146
I25
aI66
aa(lp147
I26
aI66
aa(lp148
I23
aI66
aa(lp149
I24
aI66
aa(lp150
I41
aI47
aa(lp151
I36
aI39
aa(lp152
I45
aI45
aa(lp153
I46
aI46
aa(lp154
I46
aI46
aa(lp155
I45
aI44
aa(lp156
I44
aI45
aa(lp157
I58
aI76
aa(lp158
I52
aI68
aa(lp159
I53
aI69
aa(lp160
I53
aI73
aa(lp161
I56
aI73
aa(lp162
I33
aI40
aa(lp163
I35
aI41
aa(lp164
I62
aI67
aa(lp165
I55
aI66
aa(lp166
I58
aI67
aa(lp167
I58
aI68
aa(lp168
I40
aI58
aa(lp169
I47
aI50
aa(lp170
I49
aI52
aa(lp171
I54
aI54
aa(lp172
I45
aI72
aa(lp173
I42
aI56
aa(lp174
I50
aI53
aa(lp175
I36
aI60
aa(lp176
I34
aI57
aa(lp177
I37
aI61
aa(lp178
I37
aI58
aa(lp179
I38
aI60
aa(lp180
I37
aI61
aa(lp181
I39
aI58
aa(lp182
I52
aI54
aa(lp183
I35
aI22
aa(lp184
I33
aI59
aa(lp185
I33
aI59
aa(lp186
I35
aI22
aa(lp187
I39
aI41
aa(lp188
I49
aI53
aa(lp189
I51
aI53
aa(lp190
I53
aI55
aa(lp191
I33
aI17
aa(lp192
I23
aI20
aa(lp193
I29
aI15
aa(lp194
I34
aI13
aa(lp195
I34
aI13
aa(lp196
I34
aI16
aa(lp197
I26
aI11
aa(lp198
I27
aI12
aa(lp199
I30
aI12
aa(lp200
I32
aI12
aa(lp201
I19
aI47
aa(lp202
I18
aI49
aa(lp203
I20
aI49
aa(lp204
I22
aI45
aa(lp205
I31
aI50
aa(lp206
I30
aI48
aa(lp207
I31
aI48
aa(lp208
I32
aI49
aa(lp209
I26
aI52
aa(lp210
I29
aI49
aa(lp211
I32
aI58
aa(lp212
I33
aI56
aa(lp213
I37
aI63
aa(lp214
I35
aI63
aa(lp215
I28
aI60
aa(lp216
I29
aI59
aa(lp217
I32
aI57
aa(lp218
I31
aI58
aa(lp219
I39
aI56
aa(lp220
I27
aI61
aa(lp221
I37
aI39
aa(lp222
I41
aI39
aa(lp223
I41
aI41
aa(lp224
I42
aI43
aa(lp225
I42
aI38
aa(lp226
I46
aI35
aa(lp227
I41
aI42
aa(lp228
I54
aI68
aa(lp229
I53
aI67
aa(lp230
I18
aI37
aa(lp231
I16
aI35
aa(lp232
I52
aI64
aa(lp233
I51
aI63
aa(lp234
I13
aI36
aa(lp235
I52
aI65
aa(lp236
I58
aI62
aa(lp237
I56
aI58
aa(lp238
I12
aI37
aa(lp239
I57
aI64
aa(lp240
I35
aI40
aa(lp241
I42
aI42
aa(lp242
I46
aI39
aa(lp243
I46
aI39
aa(lp244
I43
aI32
aa(lp245
I41
aI42
aa(lp246
I39
aI48
aa(lp247
I40
aI47
aa(lp248
I40
aI48
aa(lp249
I47
aI39
aa(lp250
I40
aI43
aa(lp251
I37
aI47
aa(lp252
I37
aI45
aa(lp253
I36
aI44
aa(lp254
I35
aI43
aa(lp255
I32
aI39
aa(lp256
I36
aI44
aa(lp257
I39
aI45
aa(lp258
I8
aI40
aa(lp259
I4
aI40
aa(lp260
I3
aI40
aa(lp261
I47
aI97
aa(lp262
I48
aI96
aa(lp263
I36
aI39
aa(lp264
I37
aI40
aa(lp265
I40
aI41
aa(lp266
I38
aI40
aa(lp267
I30
aI56
aa(lp268
I33
aI53
aa(lp269
I31
aI54
aa(lp270
I29
aI54
aa(lp271
I31
aI53
aa(lp272
I31
aI53
aa(lp273
I32
aI56
aa(lp274
I30
aI55
aa(lp275
I27
aI55
aa(lp276
I26
aI55
aa(lp277
I29
aI45
aa(lp278
I58
aI80
aa(lp279
I58
aI79
aa(lp280
I58
aI78
aa(lp281
I58
aI77
aa(lp282
I35
aI47
aa(lp283
I56
aI74
aa(lp284
I57
aI74
aa(lp285
I57
aI74
aa(lp286
I52
aI71
aa(lp287
I52
aI71
aa(lp288
I31
aI36
aa(lp289
I29
aI34
aa(lp290
I30
aI35
aa(lp291
I31
aI36
aa(lp292
I33
aI38
aa(lp293
I30
aI35
aa(lp294
I16
aI16
aa(lp295
I16
aI17
aa(lp296
I15
aI20
aa(lp297
I14
aI24
aa(lp298
I19
aI13
aa(lp299
I17
aI12
aa(lp300
I16
aI12
aa(lp301
I13
aI10
aa(lp302
I11
aI10
aa(lp303
I10
aI10
aa(lp304
I27
aI46
aa(lp305
I52
aI57
aa(lp306
I31
aI59
aa(lp307
I32
aI60
aa(lp308
I31
aI66
aa(lp309
I30
aI60
aa(lp310
I25
aI63
aa(lp311
I28
aI65
aa(lp312
I20
aI13
aa(lp313
I18
aI19
aa(lp314
I21
aI12
aa(lp315
I16
aI26
aa(lp316
I26
aI16
aa(lp317
I29
aI16
aa(lp318
I7
aI51
aa(lp319
I6
aI52
aa(lp320
I8
aI51
aa(lp321
I9
aI54
aa(lp322
I4
aI49
aa(lp323
I5
aI52
aa(lp324
I5
aI48
aa(lp325
I29
aI50
aa(lp326
I29
aI50
aa(lp327
I25
aI49
aa(lp328
I30
aI50
aa(lp329
I33
aI54
aa(lp330
I32
aI54
aa(lp331
I25
aI50
aa(lp332
I27
aI53
aa(lp333
I24
aI46
aa(lp334
I31
aI49
aa(lp335
I33
aI75
aa(lp336
I33
aI76
aa(lp337
I33
aI73
aa(lp338
I33
aI74
aa(lp339
I33
aI70
aa(lp340
I33
aI72
aa(lp341
I34
aI66
aa(lp342
I34
aI68
aa(lp343
I34
aI64
aa(lp344
I35
aI60
aa(lp345
I20
aI34
aa(lp346
I21
aI35
aa(lp347
I18
aI35
aa(lp348
I19
aI35
aa(lp349
I19
aI37
aa(lp350
I17
aI35
aa(lp351
I18
aI34
aa(lp352
I19
aI34
aa(lp353
I19
aI35
aa(lp354
I17
aI34
aa(lp355
I45
aI36
aa(lp356
I45
aI33
aa(lp357
I43
aI35
aa(lp358
I44
aI35
aa(lp359
I46
aI34
aa(lp360
I48
aI35
aa(lp361
I44
aI33
aa(lp362
I44
aI33
aa(lp363
I50
aI37
aa(lp364
I33
aI41
aa(lp365
I32
aI41
aa(lp366
I36
aI42
aa(lp367
I34
aI42
aa(lp368
I38
aI42
aa(lp369
I37
aI42
aa(lp370
I34
aI40
aa(lp371
I40
aI45
aa(lp372
I30
aI43
aa(lp373
I26
aI54
aa(lp374
I31
aI57
aa(lp375
I30
aI56
aa(lp376
I29
aI55
aa(lp377
I32
aI48
aa(lp378
I32
aI50
aa(lp379
I32
aI51
aa(lp380
I27
aI53
aa(lp381
I27
aI56
aa(lp382
I27
aI58
aa(lp383
I27
aI13
aa(lp384
I45
aI44
aa(lp385
I46
aI45
aa(lp386
I23
aI66
aa(lp387
I44
aI43
aa(lp388
I47
aI44
aa(lp389
I45
aI44
aa(lp390
I41
aI42
aa(lp391
I42
aI42
aa(lp392
I43
aI43
aa(lp393
I43
aI43
aa(lp394
I31
aI49
aa(lp395
I29
aI46
aa(lp396
I33
aI49
aa(lp397
I28
aI49
aa(lp398
I12
aI44
aa(lp399
I23
aI46
aa(lp400
I23
aI46
aa(lp401
I30
aI50
aa(lp402
I32
aI51
aa(lp403
I53
aI72
aa(lp404
I65
aI58
aa(lp405
I68
aI60
aa(lp406
I52
aI71
aa(lp407
I10
aI35
aa(lp408
I7
aI37
aa(lp409
I15
aI22
aa(lp410
I16
aI22
aa(lp411
I8
aI33
aa(lp412
I7
aI36
aa(lp413
I6
aI36
aa(lp414
I11
aI20
aa(lp415
I9
aI35
aa(lp416
I8
aI32
aa(lp417
I56
aI79
aa(lp418
I50
aI59
aa(lp419
I51
aI59
aa(lp420
I49
aI55
aa(lp421
I43
aI56
aa(lp422
I48
aI56
aa(lp423
I48
aI35
aa(lp424
I45
aI39
aa(lp425
I45
aI37
aa(lp426
I46
aI35
aa(lp427
I44
aI40
aa(lp428
I28
aI46
aa(lp429
I27
aI51
aa(lp430
I29
aI47
aa(lp431
I29
aI49
aa(lp432
I23
aI45
aa(lp433
I23
aI46
aa(lp434
I21
aI46
aa(lp435
I24
aI45
aa(lp436
I27
aI51
aa(lp437
I22
aI47
aa(lp438
I34
aI63
aa(lp439
I34
aI61
aa(lp440
I38
aI53
aa(lp441
I33
aI55
aa(lp442
I38
aI55
aa(lp443
I38
aI53
aa(lp444
I36
aI57
aa(lp445
I37
aI56
aa(lp446
I35
aI60
aa(lp447
I36
aI58
aa(lp448
I34
aI46
aa(lp449
I44
aI42
aa(lp450
I46
aI42
aa(lp451
I7
aI28
aa(lp452
I9
aI29
aa(lp453
I7
aI30
aa(lp454
I8
aI30
aa(lp455
I14
aI31
aa(lp456
I15
aI32
aa(lp457
I10
aI29
aa(lp458
I12
aI30
aa(lp459
I22
aI32
aa(lp460
I19
aI33
aa(lp461
I47
aI37
aa(lp462
I46
aI36
aa(lp463
I45
aI38
aa(lp464
I38
aI43
aa(lp465
I30
aI43
aa(lp466
I32
aI44
aa(lp467
I31
aI44
aa(lp468
I34
aI45
aa(lp469
I34
aI45
aa(lp470
I36
aI46
aa(lp471
I35
aI45
aa(lp472
I12
aI45
aa(lp473
I14
aI45
aa(lp474
I15
aI45
aa(lp475
I20
aI47
aa(lp476
I20
aI47
aa(lp477
I25
aI59
aa(lp478
I26
aI60
aa(lp479
I27
aI59
aa(lp480
I25
aI49
aa(lp481
I15
aI49
aa(lp482
I35
aI16
aa(lp483
I43
aI45
aa(lp484
I43
aI40
aa(lp485
I42
aI39
aa(lp486
I39
aI39
aa(lp487
I38
aI38
aa(lp488
I36
aI38
aa(lp489
I35
aI38
aa(lp490
I47
aI45
aa(lp491
I24
aI53
aa(lp492
I22
aI53
aa(lp493
I25
aI51
aa(lp494
I25
aI53
aa(lp495
I21
aI48
aa(lp496
I18
aI48
aa(lp497
I18
aI52
aa(lp498
I20
aI46
aa(lp499
I18
aI48
aa(lp500
I21
aI43
aa(lp501
I8
aI34
aa(lp502
I7
aI35
aa(lp503
I3
aI41
aa(lp504
I4
aI36
aa(lp505
I7
aI41
aa(lp506
I6
aI41
aa(lp507
I5
aI33
aa(lp508
I6
aI33
aa(lp509
I7
aI32
aa(lp510
I7
aI38
aa(lp511
I64
aI65
aa(lp512
I59
aI55
aa(lp513
I59
aI64
aa(lp514
I63
aI59
aa(lp515
I57
aI68
aa(lp516
I56
aI68
aa(lp517
I59
aI66
aa(lp518
I62
aI65
aa(lp519
I19
aI31
aa(lp520
I7
aI41
aa(lp521
I1
aI40
aa(lp522
I6
aI40
aa(lp523
I8
aI35
aa(lp524
I10
aI36
aa(lp525
I9
aI36
aa(lp526
I8
aI36
aa(lp527
I8
aI23
aa(lp528
I7
aI22
aa(lp529
I9
aI36
aa(lp530
I9
aI33
aa(lp531
I14
aI25
aa(lp532
I13
aI25
aa(lp533
I6
aI22
aa(lp534
I46
aI58
aa(lp535
I46
aI59
aa(lp536
I39
aI60
aa(lp537
I47
aI57
aa(lp538
I47
aI50
aa(lp539
I43
aI55
aa(lp540
I47
aI56
aa(lp541
I44
aI50
aa(lp542
I49
aI63
aa(lp543
I48
aI37
aa(lp544
I48
aI37
aa(lp545
I46
aI36
aa(lp546
I47
aI34
aa(lp547
I47
aI35
aa(lp548
I43
aI33
aa(lp549
I38
aI37
aa(lp550
I39
aI40
aa(lp551
I41
aI42
aa(lp552
I45
aI34
aa(lp553
I44
aI62
aa(lp554
I44
aI63
aa(lp555
I44
aI64
aa(lp556
I44
aI65
aa(lp557
I46
aI65
aa(lp558
I47
aI65
aa(lp559
I47
aI65
aa(lp560
I50
aI66
aa(lp561
I45
aI63
aa(lp562
I46
aI64
aa(lp563
I27
aI34
aa(lp564
I25
aI35
aa(lp565
I21
aI37
aa(lp566
I21
aI38
aa(lp567
I21
aI40
aa(lp568
I4
aI28
aa(lp569
I8
aI30
aa(lp570
I9
aI30
aa(lp571
I12
aI32
aa(lp572
I13
aI32
aa(lp573
I17
aI31
aa(lp574
I44
aI41
aa(lp575
I39
aI35
aa(lp576
I41
aI42
aa(lp577
I40
aI37
aa(lp578
I42
aI38
aa(lp579
I43
aI38
aa(lp580
I42
aI37
aa(lp581
I43
aI37
aa(lp582
I37
aI34
aa(lp583
I38
aI34
aa(lp584
I36
aI28
aa(lp585
I36
aI29
aa(lp586
I30
aI22
aa(lp587
I31
aI25
aa(lp588
I32
aI26
aa(lp589
I34
aI28
aa(lp590
I29
aI24
aa(lp591
I24
aI29
aa(lp592
I26
aI27
aa(lp593
I44
aI45
aa(lp594
I47
aI40
aa(lp595
I46
aI38
aa(lp596
I48
aI39
aa(lp597
I43
aI46
aa(lp598
I44
aI45
aa(lp599
I43
aI78
aa(lp600
I42
aI78
aa(lp601
I36
aI84
aa(lp602
I35
aI82
aa(lp603
I37
aI82
aa(lp604
I34
aI85
aa(lp605
I33
aI81
aa(lp606
I32
aI84
aa(lp607
I33
aI83
aa(lp608
I34
aI84
aa(lp609
I26
aI59
aa(lp610
I25
aI57
aa(lp611
I28
aI57
aa(lp612
I26
aI57
aa(lp613
I26
aI57
aa(lp614
I27
aI56
aa(lp615
I27
aI55
aa(lp616
I24
aI55
aa(lp617
I28
aI58
aa(lp618
I29
aI58
aa(lp619
I5
aI39
aa(lp620
I5
aI37
aa(lp621
I7
aI39
aa(lp622
I8
aI39
aa(lp623
I6
aI39
aa(lp624
I13
aI38
aa(lp625
I53
aI63
aa(lp626
I53
aI63
aa(lp627
I55
aI57
aa(lp628
I56
aI56
aa(lp629
I54
aI56
aa(lp630
I57
aI54
aa(lp631
I53
aI62
aa(lp632
I58
aI56
aa(lp633
I57
aI56
aa(lp634
I17
aI14
aa(lp635
I17
aI13
aa(lp636
I49
aI53
aa(lp637
I12
aI17
aa(lp638
I14
aI18
aa(lp639
I9
aI18
aa(lp640
I10
aI18
aa(lp641
I7
aI18
aa(lp642
I8
aI18
aa(lp643
I18
aI11
aa(lp644
I18
aI10
aa(lp645
I53
aI54
aa(lp646
I53
aI52
aa(lp647
I27
aI24
aa(lp648
I52
aI54
aa(lp649
I49
aI62
aa(lp650
I46
aI50
aa(lp651
I44
aI51
aa(lp652
I42
aI42
aa(lp653
I43
aI40
aa(lp654
I14
aI39
aa(lp655
I4
aI35
aa(lp656
I3
aI38
aa(lp657
I3
aI37
aa(lp658
I29
aI35
aa(lp659
I6
aI36
aa(lp660
I27
aI35
aa(lp661
I8
aI38
aa(lp662
I3
aI36
aa(lp663
I11
aI40
aa(lp664
I43
aI61
aa(lp665
I42
aI60
aa(lp666
I41
aI59
aa(lp667
I40
aI58
aa(lp668
I52
aI59
aa(lp669
I45
aI61
aa(lp670
I45
aI61
aa(lp671
I43
aI61
aa(lp672
I52
aI57
aa(lp673
I52
aI59
aa(lp674
I23
aI32
aa(lp675
I17
aI33
aa(lp676
I15
aI33
aa(lp677
I27
aI34
aa(lp678
I20
aI35
aa(lp679
I21
aI36
aa(lp680
I21
aI35
aa(lp681
I22
aI33
aa(lp682
I27
aI37
aa(lp683
I25
aI37
aa(lp684
I40
aI34
aa(lp685
I41
aI33
aa(lp686
I44
aI37
aa(lp687
I42
aI35
aa(lp688
I43
aI37
aa(lp689
I40
aI35
aa(lp690
I41
aI32
aa(lp691
I40
aI31
aa(lp692
I40
aI32
aa(lp693
I39
aI34
aa(lp694
I29
aI26
aa(lp695
I29
aI27
aa(lp696
I29
aI28
aa(lp697
I29
aI29
aa(lp698
I30
aI31
aa(lp699
I30
aI32
aa(lp700
I31
aI33
aa(lp701
I32
aI34
aa(lp702
I32
aI35
aa(lp703
I33
aI36
aa(lp704
I44
aI44
aa(lp705
I43
aI43
aa(lp706
I43
aI46
aa(lp707
I43
aI43
aa(lp708
I43
aI46
aa(lp709
I29
aI81
aa(lp710
I28
aI81
aa(lp711
I29
aI78
aa(lp712
I30
aI78
aa(lp713
I30
aI85
aa(lp714
I30
aI84
aa(lp715
I31
aI82
aa(lp716
I31
aI80
aa(lp717
I32
aI78
aa(lp718
I41
aI53
aa(lp719
I59
aI61
aa(lp720
I27
aI14
aa(lp721
I27
aI11
aa(lp722
I61
aI62
aa(lp723
I63
aI62
aa(lp724
I65
aI63
aa(lp725
I64
aI60
aa(lp726
I56
aI57
aa(lp727
I56
aI57
aa(lp728
I57
aI57
aa(lp729
I16
aI55
aa(lp730
I14
aI55
aa(lp731
I17
aI60
aa(lp732
I19
aI55
aa(lp733
I19
aI55
aa(lp734
I18
aI56
aa(lp735
I17
aI56
aa(lp736
I16
aI55
aa(lp737
I62
aI54
aa(lp738
I54
aI55
aa(lp739
I62
aI63
aa(lp740
I63
aI60
aa(lp741
I64
aI57
aa(lp742
I64
aI67
aa(lp743
I59
aI65
aa(lp744
I39
aI46
aa(lp745
I42
aI57
aa(lp746
I39
aI59
aa(lp747
I54
aI54
aa(lp748
I39
aI65
aa(lp749
I40
aI63
aa(lp750
I46
aI51
aa(lp751
I41
aI57
aa(lp752
I54
aI54
aa(lp753
I9
aI40
aa(lp754
I10
aI39
aa(lp755
I11
aI36
aa(lp756
I12
aI35
aa(lp757
I10
aI39
aa(lp758
I9
aI37
aa(lp759
I7
aI42
aa(lp760
I53
aI56
aa(lp761
I43
aI40
aa(lp762
I58
aI62
aa(lp763
I56
aI61
aa(lp764
I25
aI38
aa(lp765
I27
aI40
aa(lp766
I23
aI36
aa(lp767
I64
aI65
aa(lp768
I29
aI36
aa(lp769
I22
aI36
aa(lp770
I29
aI37
aa(lp771
I29
aI37
aa(lp772
I27
aI38
aa(lp773
I28
aI38
aa(lp774
I30
aI38
aa(lp775
I58
aI55
aa(lp776
I32
aI45
aa(lp777
I32
aI46
aa(lp778
I31
aI46
aa(lp779
I31
aI40
aa(lp780
I33
aI47
aa(lp781
I30
aI46
aa(lp782
I34
aI46
aa(lp783
I32
aI32
aa(lp784
I34
aI33
aa(lp785
I33
aI34
aa(lp786
I34
aI34
aa(lp787
I32
aI33
aa(lp788
I32
aI34
aa(lp789
I30
aI31
aa(lp790
I31
aI31
aa(lp791
I35
aI35
aa(lp792
I36
aI35
aa(lp793
I45
aI48
aa(lp794
I45
aI47
aa(lp795
I45
aI48
aa(lp796
I45
aI47
aa(lp797
I49
aI94
aa(lp798
I45
aI79
aa(lp799
I47
aI82
aa(lp800
I45
aI76
aa(lp801
I45
aI78
aa(lp802
I50
aI90
aa(lp803
I50
aI89
aa(lp804
I49
aI85
aa(lp805
I50
aI87
aa(lp806
I41
aI36
aa(lp807
I41
aI35
aa(lp808
I46
aI69
aa(lp809
I45
aI71
aa(lp810
I47
aI52
aa(lp811
I33
aI18
aa(lp812
I40
aI42
aa(lp813
I36
aI40
aa(lp814
I31
aI17
aa(lp815
I33
aI18
aa(lp816
I45
aI73
aa(lp817
I45
aI75
aa(lp818
I42
aI34
aa(lp819
I42
aI33
aa(lp820
I18
aI60
aa(lp821
I19
aI60
aa(lp822
I21
aI59
aa(lp823
I22
aI58
aa(lp824
I23
aI57
aa(lp825
I24
aI57
aa(lp826
I16
aI59
aa(lp827
I17
aI59
aa(lp828
I18
aI59
aa(lp829
I19
aI59
aa(lp830
I67
aI62
aa(lp831
I61
aI65
aa(lp832
I58
aI64
aa(lp833
I62
aI68
aa(lp834
I63
aI69
aa(lp835
I56
aI63
aa(lp836
I58
aI66
aa(lp837
I52
aI65
aa(lp838
I57
aI58
aa(lp839
I53
aI78
aa(lp840
I47
aI62
aa(lp841
I54
aI55
aa(lp842
I52
aI80
aa(lp843
I52
aI53
aa(lp844
I53
aI80
aa(lp845
I52
aI53
aa(lp846
I51
aI53
aa(lp847
I50
aI52
aa(lp848
I48
aI51
aa(lp849
I35
aI42
aa(lp850
I12
aI21
aa(lp851
I28
aI45
aa(lp852
I13
aI21
aa(lp853
I42
aI46
aa(lp854
I6
aI37
aa(lp855
I31
aI47
aa(lp856
I11
aI37
aa(lp857
I22
aI31
aa(lp858
I17
aI32
aa(lp859
I4
aI37
aa(lp860
I15
aI32
aa(lp861
I9
aI29
aa(lp862
I20
aI31
aa(lp863
I6
aI41
aa(lp864
I7
aI40
aa(lp865
I16
aI5
aa(lp866
I18
aI7
aa(lp867
I29
aI25
aa(lp868
I5
aI36
aa(lp869
I18
aI8
aa(lp870
I19
aI9
aa(lp871
I17
aI38
aa(lp872
I19
aI37
aa(lp873
I56
aI59
aa(lp874
I58
aI61
aa(lp875
I26
aI42
aa(lp876
I27
aI40
aa(lp877
I24
aI40
aa(lp878
I25
aI41
aa(lp879
I20
aI40
aa(lp880
I23
aI40
aa(lp881
I20
aI37
aa(lp882
I20
aI38
aa(lp883
I29
aI41
aa(lp884
I30
aI40
aa(lp885
I30
aI39
aa(lp886
I29
aI40
aa(lp887
I33
aI47
aa(lp888
I33
aI45
aa(lp889
I33
aI39
aa(lp890
I32
aI48
aa(lp891
I39
aI43
aa(lp892
I37
aI43
aa(lp893
I33
aI29
aa(lp894
I35
aI30
aa(lp895
I31
aI28
aa(lp896
I31
aI28
aa(lp897
I38
aI30
aa(lp898
I38
aI30
aa(lp899
I37
aI31
aa(lp900
I38
aI31
aa(lp901
I33
aI30
aa(lp902
I31
aI30
aa(lp903
I37
aI88
aa(lp904
I38
aI86
aa(lp905
I39
aI79
aa(lp906
I39
aI77
aa(lp907
I39
aI83
aa(lp908
I39
aI81
aa(lp909
I46
aI44
aa(lp910
I42
aI42
aa(lp911
I40
aI42
aa(lp912
I39
aI38
aa(lp913
I42
aI32
aa(lp914
I54
aI54
aa(lp915
I37
aI37
aa(lp916
I37
aI36
aa(lp917
I39
aI36
aa(lp918
I41
aI42
aa(lp919
I42
aI41
aa(lp920
I42
aI39
aa(lp921
I47
aI64
aa(lp922
I47
aI63
aa(lp923
I6
aI64
aa(lp924
I6
aI65
aa(lp925
I6
aI63
aa(lp926
I8
aI60
aa(lp927
I10
aI60
aa(lp928
I11
aI65
aa(lp929
I11
aI66
aa(lp930
I58
aI53
aa(lp931
I61
aI53
aa(lp932
I62
aI69
aa(lp933
I63
aI70
aa(lp934
I66
aI64
aa(lp935
I61
aI72
aa(lp936
I59
aI62
aa(lp937
I55
aI68
aa(lp938
I59
aI63
aa(lp939
I62
aI73
aa(lp940
I64
aI73
aa(lp941
I64
aI71
aa(lp942
I60
aI72
aa(lp943
I65
aI70
aa(lp944
I25
aI53
aa(lp945
I21
aI31
aa(lp946
I22
aI30
aa(lp947
I19
aI32
aa(lp948
I25
aI42
aa(lp949
I20
aI32
aa(lp950
I17
aI31
aa(lp951
I22
aI42
aa(lp952
I24
aI36
aa(lp953
I23
aI39
aa(lp954
I27
aI17
aa(lp955
I25
aI15
aa(lp956
I23
aI14
aa(lp957
I21
aI11
aa(lp958
I60
aI58
aa(lp959
I58
aI58
aa(lp960
I57
aI54
aa(lp961
I57
aI55
aa(lp962
I61
aI56
aa(lp963
I58
aI55
aa(lp964
I62
aI60
aa(lp965
I61
aI59
aa(lp966
I65
aI62
aa(lp967
I64
aI61
aa(lp968
I52
aI52
aa(lp969
I53
aI53
aa(lp970
I47
aI50
aa(lp971
I48
aI51
aa(lp972
I32
aI37
aa(lp973
I32
aI39
aa(lp974
I32
aI38
aa(lp975
I33
aI35
aa(lp976
I34
aI35
aa(lp977
I36
aI37
aa(lp978
I35
aI36
aa(lp979
I33
aI36
aa(lp980
I34
aI37
aa(lp981
I33
aI37
aa(lp982
I45
aI50
aa(lp983
I41
aI53
aa(lp984
I43
aI49
aa(lp985
I37
aI53
aa(lp986
I36
aI53
aa(lp987
I42
aI53
aa(lp988
I44
aI50
aa(lp989
I43
aI49
aa(lp990
I41
aI49
aa(lp991
I45
aI44
aa(lp992
I42
aI46
aa(lp993
I11
aI74
aa(lp994
I11
aI76
aa(lp995
I11
aI77
aa(lp996
I42
aI47
aa(lp997
I43
aI47
aa(lp998
I45
aI48
aa(lp999
I51
aI56
aa(lp1000
I52
aI56
aa(lp1001
I50
aI55
aa(lp1002
I51
aI55
aa(lp1003
I49
aI56
aa(lp1004
I43
aI56
aa(lp1005
I52
aI56
aa(lp1006
I49
aI56
aa(lp1007
I26
aI29
aa(lp1008
I47
aI60
aa(lp1009
I47
aI61
aa(lp1010
I36
aI5
aa(lp1011
I35
aI6
aa(lp1012
I34
aI9
aa(lp1013
I34
aI16
aa(lp1014
I44
aI48
aa(lp1015
I43
aI48
aa(lp1016
I42
aI48
aa(lp1017
I41
aI47
aa(lp1018
I45
aI48
aa(lp1019
I45
aI48
aa(lp1020
I36
aI47
aa(lp1021
I45
aI44
aa(lp1022
I44
aI41
aa(lp1023
I12
aI56
aa(lp1024
I13
aI55
aa(lp1025
I10
aI56
aa(lp1026
I11
aI56
aa(lp1027
I14
aI54
aa(lp1028
I17
aI54
aa(lp1029
I25
aI57
aa(lp1030
I32
aI42
aa(lp1031
I42
aI41
aa(lp1032
I42
aI36
aa(lp1033
I64
aI75
aa(lp1034
I65
aI75
aa(lp1035
I36
aI37
aa(lp1036
I66
aI67
aa(lp1037
I44
aI36
aa(lp1038
I37
aI49
aa(lp1039
I40
aI36
aa(lp1040
I37
aI46
aa(lp1041
I31
aI43
aa(lp1042
I55
aI73
aa(lp1043
I39
aI70
aa(lp1044
I51
aI67
aa(lp1045
I50
aI59
aa(lp1046
I53
aI55
aa(lp1047
I40
aI66
aa(lp1048
I40
aI64
aa(lp1049
I39
aI69
aa(lp1050
I32
aI79
aa(lp1051
I11
aI38
aa(lp1052
I18
aI39
aa(lp1053
I29
aI37
aa(lp1054
I21
aI32
aa(lp1055
I25
aI38
aa(lp1056
I24
aI40
aa(lp1057
I29
aI38
aa(lp1058
I25
aI34
aa(lp1059
I39
aI53
aa(lp1060
I41
aI52
aa(lp1061
I40
aI53
aa(lp1062
I36
aI56
aa(lp1063
I34
aI61
aa(lp1064
I35
aI74
aa(lp1065
I37
aI74
aa(lp1066
I37
aI77
aa(lp1067
I37
aI57
aa(lp1068
I36
aI52
aa(lp1069
I66
aI61
aa(lp1070
I60
aI53
aa(lp1071
I64
aI59
aa(lp1072
I65
aI59
aa(lp1073
I69
aI60
aa(lp1074
I63
aI55
aa(lp1075
I66
aI58
aa(lp1076
I62
aI57
aa(lp1077
I63
aI58
aa(lp1078
I35
aI32
aa(lp1079
I33
aI37
aa(lp1080
I34
aI31
aa(lp1081
I35
aI33
aa(lp1082
I30
aI33
aa(lp1083
I29
aI33
aa(lp1084
I37
aI33
aa(lp1085
I36
aI32
aa(lp1086
I31
aI37
aa(lp1087
I30
aI33
aa(lp1088
I42
aI55
aa(lp1089
I36
aI49
aa(lp1090
I36
aI49
aa(lp1091
I39
aI50
aa(lp1092
I40
aI57
aa(lp1093
I42
aI54
aa(lp1094
I44
aI43
aa(lp1095
I34
aI11
aa(lp1096
I34
aI17
aa(lp1097
I50
aI55
aa(lp1098
I50
aI54
aa(lp1099
I50
aI55
aa(lp1100
I34
aI23
aa(lp1101
I28
aI9
aa(lp1102
I29
aI8
aa(lp1103
I45
aI52
aa(lp1104
I31
aI22
aa(lp1105
I48
aI53
aa(lp1106
I47
aI53
aa(lp1107
I46
aI47
aa(lp1108
I46
aI48
aa(lp1109
I50
aI41
aa(lp1110
I49
aI41
aa(lp1111
I47
aI48
aa(lp1112
I50
aI41
aa(lp1113
I46
aI41
aa(lp1114
I45
aI40
aa(lp1115
I45
aI47
aa(lp1116
I45
aI47
aa(lp1117
I52
aI69
aa(lp1118
I52
aI70
aa(lp1119
I50
aI69
aa(lp1120
I56
aI71
aa(lp1121
I54
aI71
aa(lp1122
I55
aI70
aa(lp1123
I56
aI72
aa(lp1124
I54
aI72
aa(lp1125
I52
aI78
aa(lp1126
I27
aI53
aa(lp1127
I52
aI79
aa(lp1128
I53
aI79
aa(lp1129
I54
aI79
aa(lp1130
I55
aI79
aa(lp1131
I39
aI75
aa(lp1132
I42
aI73
aa(lp1133
I44
aI73
aa(lp1134
I38
aI61
aa(lp1135
I39
aI73
aa(lp1136
I39
aI74
aa(lp1137
I39
aI76
aa(lp1138
I26
aI50
aa(lp1139
I28
aI52
aa(lp1140
I23
aI47
aa(lp1141
I24
aI46
aa(lp1142
I21
aI44
aa(lp1143
I26
aI31
aa(lp1144
I27
aI29
aa(lp1145
I12
aI36
aa(lp1146
I16
aI37
aa(lp1147
I7
aI28
aa(lp1148
I15
aI31
aa(lp1149
I19
aI36
aa(lp1150
I20
aI39
aa(lp1151
I23
aI34
aa(lp1152
I27
aI36
aa(lp1153
I35
aI33
aa(lp1154
I39
aI32
aa(lp1155
I38
aI32
aa(lp1156
I40
aI55
aa(lp1157
I41
aI56
aa(lp1158
I41
aI56
aa(lp1159
I39
aI48
aa(lp1160
I39
aI48
aa(lp1161
I43
aI36
aa(lp1162
I36
aI49
aa(lp1163
I44
aI38
aa(lp1164
I39
aI56
aa(lp1165
I40
aI55
aa(lp1166
I60
aI77
aa(lp1167
I60
aI78
aa(lp1168
I60
aI80
aa(lp1169
I60
aI81
aa(lp1170
I57
aI66
aa(lp1171
I59
aI65
aa(lp1172
I54
aI63
aa(lp1173
I63
aI65
aa(lp1174
I62
aI56
aa(lp1175
I55
aI63
aa(lp1176
I29
aI32
aa(lp1177
I17
aI40
aa(lp1178
I6
aI28
aa(lp1179
I23
aI40
aa(lp1180
I20
aI33
aa(lp1181
I23
aI39
aa(lp1182
I16
aI40
aa(lp1183
I25
aI48
aa(lp1184
I25
aI47
aa(lp1185
I28
aI21
aa(lp1186
I28
aI20
aa(lp1187
I27
aI29
aa(lp1188
I28
aI21
aa(lp1189
I36
aI33
aa(lp1190
I38
aI33
aa(lp1191
I28
aI30
aa(lp1192
I21
aI45
aa(lp1193
I22
aI48
aa(lp1194
I24
aI49
aa(lp1195
I42
aI55
aa(lp1196
I38
aI50
aa(lp1197
I36
aI50
aa(lp1198
I36
aI50
aa(lp1199
I42
aI54
aa(lp1200
I42
aI54
aa(lp1201
I41
aI48
aa(lp1202
I36
aI49
aa(lp1203
I35
aI53
aa(lp1204
I30
aI59
aa(lp1205
I32
aI37
aa(lp1206
I17
aI86
aa(lp1207
I19
aI82
aa(lp1208
I19
aI83
aa(lp1209
I20
aI78
aa(lp1210
I20
aI80
aa(lp1211
I22
aI70
aa(lp1212
I21
aI73
aa(lp1213
I22
aI71
aa(lp1214
I25
aI64
aa(lp1215
I26
aI20
aa(lp1216
I27
aI20
aa(lp1217
I28
aI18
aa(lp1218
I26
aI18
aa(lp1219
I24
aI9
aa(lp1220
I31
aI10
aa(lp1221
I28
aI12
aa(lp1222
I25
aI10
aa(lp1223
I27
aI12
aa(lp1224
I26
aI13
aa(lp1225
I50
aI61
aa(lp1226
I44
aI57
aa(lp1227
I46
aI51
aa(lp1228
I46
aI52
aa(lp1229
I46
aI53
aa(lp1230
I46
aI55
aa(lp1231
I46
aI56
aa(lp1232
I47
aI57
aa(lp1233
I48
aI59
aa(lp1234
I49
aI60
aa(lp1235
I47
aI47
aa(lp1236
I43
aI46
aa(lp1237
I43
aI46
aa(lp1238
I45
aI46
aa(lp1239
I44
aI46
aa(lp1240
I46
aI46
aa(lp1241
I46
aI46
aa(lp1242
I42
aI45
aa(lp1243
I5
aI48
aa(lp1244
I6
aI48
aa(lp1245
I7
aI47
aa(lp1246
I8
aI46
aa(lp1247
I9
aI46
aa(lp1248
I10
aI46
aa(lp1249
I51
aI41
aa(lp1250
I51
aI41
aa(lp1251
I48
aI44
aa(lp1252
I26
aI44
aa(lp1253
I31
aI41
aa(lp1254
I31
aI41
aa(lp1255
I27
aI44
aa(lp1256
I28
aI45
aa(lp1257
I52
aI39
aa(lp1258
I52
aI38
aa(lp1259
I47
aI67
aa(lp1260
I47
aI68
aa(lp1261
I45
aI67
aa(lp1262
I46
aI68
aa(lp1263
I46
aI67
aa(lp1264
I40
aI67
aa(lp1265
I39
aI67
aa(lp1266
I43
aI67
aa(lp1267
I42
aI66
aa(lp1268
I29
aI45
aa(lp1269
I62
aI81
aa(lp1270
I32
aI48
aa(lp1271
I30
aI47
aa(lp1272
I3
aI42
aa(lp1273
I4
aI42
aa(lp1274
I19
aI30
aa(lp1275
I5
aI42
aa(lp1276
I16
aI30
aa(lp1277
I20
aI30
aa(lp1278
I17
aI30
aa(lp1279
I21
aI30
aa(lp1280
I33
aI42
aa(lp1281
I6
aI42
aa(lp1282
I30
aI37
aa(lp1283
I37
aI35
aa(lp1284
I42
aI52
aa(lp1285
I43
aI51
aa(lp1286
I40
aI57
aa(lp1287
I40
aI50
aa(lp1288
I38
aI57
aa(lp1289
I38
aI58
aa(lp1290
I34
aI53
aa(lp1291
I34
aI53
aa(lp1292
I38
aI58
aa(lp1293
I38
aI58
aa(lp1294
I60
aI70
aa(lp1295
I61
aI68
aa(lp1296
I61
aI71
aa(lp1297
I55
aI67
aa(lp1298
I60
aI74
aa(lp1299
I60
aI73
aa(lp1300
I60
aI64
aa(lp1301
I60
aI72
aa(lp1302
I60
aI76
aa(lp1303
I60
aI75
aa(lp1304
I15
aI40
aa(lp1305
I27
aI42
aa(lp1306
I25
aI35
aa(lp1307
I23
aI34
aa(lp1308
I28
aI35
aa(lp1309
I28
aI36
aa(lp1310
I20
aI32
aa(lp1311
I25
aI39
aa(lp1312
I27
aI33
aa(lp1313
I30
aI47
aa(lp1314
I30
aI47
aa(lp1315
I32
aI50
aa(lp1316
I31
aI50
aa(lp1317
I30
aI49
aa(lp1318
I29
aI48
aa(lp1319
I29
aI47
aa(lp1320
I28
aI47
aa(lp1321
I27
aI46
aa(lp1322
I28
aI34
aa(lp1323
I50
aI43
aa(lp1324
I37
aI54
aa(lp1325
I34
aI50
aa(lp1326
I40
aI50
aa(lp1327
I42
aI50
aa(lp1328
I42
aI50
aa(lp1329
I43
aI51
aa(lp1330
I44
aI49
aa(lp1331
I44
aI51
aa(lp1332
I43
aI52
aa(lp1333
I42
aI49
aa(lp1334
I24
aI32
aa(lp1335
I36
aI34
aa(lp1336
I35
aI34
aa(lp1337
I33
aI33
aa(lp1338
I34
aI27
aa(lp1339
I33
aI23
aa(lp1340
I32
aI22
aa(lp1341
I32
aI24
aa(lp1342
I22
aI63
aa(lp1343
I24
aI63
aa(lp1344
I19
aI63
aa(lp1345
I21
aI63
aa(lp1346
I21
aI64
aa(lp1347
I19
aI64
aa(lp1348
I33
aI38
aa(lp1349
I29
aI33
aa(lp1350
I24
aI7
aa(lp1351
I25
aI7
aa(lp1352
I26
aI7
aa(lp1353
I27
aI8
aa(lp1354
I30
aI8
aa(lp1355
I31
aI8
aa(lp1356
I31
aI8
aa(lp1357
I31
aI8
aa(lp1358
I29
aI9
aa(lp1359
I30
aI9
aa(lp1360
I43
aI59
aa(lp1361
I43
aI58
aa(lp1362
I44
aI53
aa(lp1363
I45
aI52
aa(lp1364
I45
aI52
aa(lp1365
I45
aI51
aa(lp1366
I44
aI57
aa(lp1367
I45
aI57
aa(lp1368
I44
aI55
aa(lp1369
I44
aI55
aa(lp1370
I41
aI43
aa(lp1371
I44
aI45
aa(lp1372
I49
aI43
aa(lp1373
I43
aI44
aa(lp1374
I46
aI45
aa(lp1375
I47
aI46
aa(lp1376
I45
aI45
aa(lp1377
I46
aI45
aa(lp1378
I33
aI48
aa(lp1379
I32
aI47
aa(lp1380
I35
aI47
aa(lp1381
I46
aI42
aa(lp1382
I33
aI46
aa(lp1383
I33
aI46
aa(lp1384
I31
aI45
aa(lp1385
I31
aI45
aa(lp1386
I34
aI41
aa(lp1387
I35
aI40
aa(lp1388
I40
aI38
aa(lp1389
I15
aI54
aa(lp1390
I15
aI52
aa(lp1391
I21
aI66
aa(lp1392
I18
aI63
aa(lp1393
I21
aI61
aa(lp1394
I15
aI59
aa(lp1395
I15
aI55
aa(lp1396
I41
aI37
aa(lp1397
I54
aI85
aa(lp1398
I57
aI85
aa(lp1399
I55
aI85
aa(lp1400
I55
aI84
aa(lp1401
I56
aI83
aa(lp1402
I53
aI83
aa(lp1403
I54
aI84
aa(lp1404
I11
aI39
aa(lp1405
I13
aI35
aa(lp1406
I19
aI39
aa(lp1407
I15
aI38
aa(lp1408
I16
aI38
aa(lp1409
I16
aI35
aa(lp1410
I18
aI39
aa(lp1411
I12
aI38
aa(lp1412
I12
aI35
aa(lp1413
I19
aI38
aa(lp1414
I27
aI20
aa(lp1415
I18
aI25
aa(lp1416
I20
aI17
aa(lp1417
I26
aI64
aa(lp1418
I28
aI65
aa(lp1419
I31
aI64
aa(lp1420
I29
aI61
aa(lp1421
I28
aI62
aa(lp1422
I28
aI63
aa(lp1423
I34
aI63
aa(lp1424
I36
aI63
aa(lp1425
I30
aI62
aa(lp1426
I31
aI62
aa(lp1427
I56
aI68
aa(lp1428
I54
aI66
aa(lp1429
I56
aI66
aa(lp1430
I56
aI67
aa(lp1431
I56
aI65
aa(lp1432
I55
aI65
aa(lp1433
I59
aI66
aa(lp1434
I57
aI65
aa(lp1435
I64
aI70
aa(lp1436
I61
aI67
aa(lp1437
I47
aI50
aa(lp1438
I15
aI35
aa(lp1439
I14
aI35
aa(lp1440
I53
aI67
aa(lp1441
I20
aI50
aa(lp1442
I18
aI50
aa(lp1443
I31
aI51
aa(lp1444
I16
aI37
aa(lp1445
I31
aI48
aa(lp1446
I32
aI49
aa(lp1447
I24
aI54
aa(lp1448
I22
aI50
aa(lp1449
I25
aI52
aa(lp1450
I15
aI37
aa(lp1451
I39
aI55
aa(lp1452
I39
aI56
aa(lp1453
I62
aI60
aa(lp1454
I34
aI51
aa(lp1455
I40
aI52
aa(lp1456
I35
aI54
aa(lp1457
I38
aI52
aa(lp1458
I39
aI54
aa(lp1459
I39
aI55
aa(lp1460
I40
aI52
aa(lp1461
I40
aI53
aa(lp1462
I11
aI70
aa(lp1463
I5
aI-3
aa(lp1464
I7
aI-1
aa(lp1465
I9
aI-1
aa(lp1466
I9
aI0
aa(lp1467
I46
aI50
aa(lp1468
I46
aI50
aa(lp1469
I48
aI64
aa(lp1470
I4
aI-3
aa(lp1471
I55
aI53
aa(lp1472
I51
aI52
aa(lp1473
I46
aI49
aa(lp1474
I47
aI47
aa(lp1475
I47
aI47
aa(lp1476
I47
aI46
aa(lp1477
I49
aI44
aa(lp1478
I39
aI45
aa(lp1479
I36
aI43
aa(lp1480
I28
aI43
aa(lp1481
I29
aI43
aa(lp1482
I41
aI45
aa(lp1483
I38
aI47
aa(lp1484
I40
aI47
aa(lp1485
I37
aI45
aa(lp1486
I10
aI44
aa(lp1487
I11
aI45
aa(lp1488
I13
aI49
aa(lp1489
I14
aI51
aa(lp1490
I12
aI51
aa(lp1491
I10
aI43
aa(lp1492
I54
aI82
aa(lp1493
I56
aI82
aa(lp1494
I55
aI80
aa(lp1495
I54
aI80
aa(lp1496
I53
aI81
aa(lp1497
I52
aI81
aa(lp1498
I55
aI81
aa(lp1499
I54
aI81
aa(lp1500
I57
aI82
aa(lp1501
I57
aI81
aa(lp1502
I64
aI66
aa(lp1503
I62
aI80
aa(lp1504
I29
aI46
aa(lp1505
I62
aI77
aa(lp1506
I62
aI78
aa(lp1507
I62
aI75
aa(lp1508
I62
aI76
aa(lp1509
I26
aI57
aa(lp1510
I20
aI28
aa(lp1511
I23
aI29
aa(lp1512
I42
aI62
aa(lp1513
I43
aI64
aa(lp1514
I42
aI65
aa(lp1515
I43
aI65
aa(lp1516
I38
aI63
aa(lp1517
I50
aI66
aa(lp1518
I40
aI60
aa(lp1519
I41
aI60
aa(lp1520
I42
aI64
aa(lp1521
I44
aI64
aa(lp1522
I15
aI19
aa(lp1523
I16
aI18
aa(lp1524
I11
aI24
aa(lp1525
I10
aI24
aa(lp1526
I64
aI73
aa(lp1527
I61
aI66
aa(lp1528
I55
aI63
aa(lp1529
I53
aI60
aa(lp1530
I54
aI61
aa(lp1531
I54
aI61
aa(lp1532
I55
aI62
aa(lp1533
I61
aI65
aa(lp1534
I63
aI66
aa(lp1535
I58
aI63
aa(lp1536
I60
aI64
aa(lp1537
I24
aI18
aa(lp1538
I24
aI19
aa(lp1539
I25
aI30
aa(lp1540
I22
aI28
aa(lp1541
I35
aI33
aa(lp1542
I36
aI33
aa(lp1543
I31
aI34
aa(lp1544
I34
aI32
aa(lp1545
I24
aI19
aa(lp1546
I26
aI25
aa.